target datalayout = "e-m:e-p270:32:32-p271:32:32-p272:64:64-i64:64-i128:128-f80:128-n8:16:32:64-S128"
target triple = "x86_64-pc-linux-gnu"

%struct.pg_compress_specification = type { i32, i32, i32, i32, i8, ptr }
%struct.CompressorState = type { ptr, ptr, ptr, ptr, ptr, %struct.pg_compress_specification, ptr }
%struct.z_stream_s = type { ptr, i32, i64, ptr, i32, i64, ptr, ptr, ptr, ptr, ptr, i32, i64, i64 }
%struct.GzipCompressorState = type { ptr, ptr, i64 }

@.str = private unnamed_addr constant [7 x i8] c"1.2.11\00", align 1
@.str.1 = private unnamed_addr constant [45 x i8] c"could not initialize compression library: %s\00", align 1

; Function Attrs: nounwind uwtable
define internal void @DeflateCompressorInit(ptr noundef %0) #0 {
  %2 = alloca ptr, align 8
  %3 = alloca ptr, align 8
  %4 = alloca ptr, align 8
  store ptr %0, ptr %2, align 8
  call void @llvm.lifetime.start.p0(i64 8, ptr %3) #7
  call void @llvm.lifetime.start.p0(i64 8, ptr %4) #7
  %5 = call ptr @pg_malloc0(i64 noundef 24)
  store ptr %5, ptr %3, align 8
  %6 = call ptr @pg_malloc(i64 noundef 112)
  %7 = load ptr, ptr %3, align 8
  %8 = getelementptr inbounds nuw %struct.GzipCompressorState, ptr %7, i32 0, i32 0
  store ptr %6, ptr %8, align 8
  store ptr %6, ptr %4, align 8
  %9 = load ptr, ptr %4, align 8
  %10 = getelementptr inbounds nuw %struct.z_stream_s, ptr %9, i32 0, i32 8
  store ptr null, ptr %10, align 8
  %11 = load ptr, ptr %4, align 8
  %12 = getelementptr inbounds nuw %struct.z_stream_s, ptr %11, i32 0, i32 9
  store ptr null, ptr %12, align 8
  %13 = load ptr, ptr %4, align 8
  %14 = getelementptr inbounds nuw %struct.z_stream_s, ptr %13, i32 0, i32 10
  store ptr null, ptr %14, align 8
  %15 = load ptr, ptr %3, align 8
  %16 = getelementptr inbounds nuw %struct.GzipCompressorState, ptr %15, i32 0, i32 2
  store i64 4096, ptr %16, align 8
  %17 = load ptr, ptr %3, align 8
  %18 = getelementptr inbounds nuw %struct.GzipCompressorState, ptr %17, i32 0, i32 2
  %19 = load i64, ptr %18, align 8
  %20 = add i64 %19, 1
  %21 = call ptr @pg_malloc(i64 noundef %20)
  %22 = load ptr, ptr %3, align 8
  %23 = getelementptr inbounds nuw %struct.GzipCompressorState, ptr %22, i32 0, i32 1
  store ptr %21, ptr %23, align 8
  %24 = load ptr, ptr %4, align 8
  %25 = load ptr, ptr %2, align 8
  %26 = getelementptr inbounds nuw %struct.CompressorState, ptr %25, i32 0, i32 5
  %27 = getelementptr inbounds nuw %struct.pg_compress_specification, ptr %26, i32 0, i32 2
  %28 = load i32, ptr %27, align 8
  %29 = call i32 @deflateInit_(ptr noundef %24, i32 noundef %28, ptr noundef @.str, i32 noundef 112)
  %30 = icmp ne i32 %29, 0
  br i1 %30, label %31, label %38

31:                                               ; preds = %1
  br label %32

32:                                               ; preds = %31
  %33 = load ptr, ptr %4, align 8
  %34 = getelementptr inbounds nuw %struct.z_stream_s, ptr %33, i32 0, i32 6
  %35 = load ptr, ptr %34, align 8
  call void (i32, i32, ptr, ...) @pg_log_generic(i32 noundef 4, i32 noundef 0, ptr noundef @.str.1, ptr noundef %35)
  call void @exit_nicely(i32 noundef 1) #8
  unreachable

36:                                               ; No predecessors!
  br label %37

37:                                               ; preds = %36
  br label %38

38:                                               ; preds = %37, %1
  %39 = load ptr, ptr %3, align 8
  %40 = getelementptr inbounds nuw %struct.GzipCompressorState, ptr %39, i32 0, i32 1
  %41 = load ptr, ptr %40, align 8
  %42 = load ptr, ptr %4, align 8
  %43 = getelementptr inbounds nuw %struct.z_stream_s, ptr %42, i32 0, i32 3
  store ptr %41, ptr %43, align 8
  %44 = load ptr, ptr %3, align 8
  %45 = getelementptr inbounds nuw %struct.GzipCompressorState, ptr %44, i32 0, i32 2
  %46 = load i64, ptr %45, align 8
  %47 = trunc i64 %46 to i32
  %48 = load ptr, ptr %4, align 8
  %49 = getelementptr inbounds nuw %struct.z_stream_s, ptr %48, i32 0, i32 4
  store i32 %47, ptr %49, align 8
  %50 = load ptr, ptr %3, align 8
  %51 = load ptr, ptr %2, align 8
  %52 = getelementptr inbounds nuw %struct.CompressorState, ptr %51, i32 0, i32 6
  store ptr %50, ptr %52, align 8
  call void @llvm.lifetime.end.p0(i64 8, ptr %4) #7
  call void @llvm.lifetime.end.p0(i64 8, ptr %3) #7
  ret void
}

; Function Attrs: nounwind uwtable
define dso_local void @InitCompressorGzip(ptr noundef %0, ptr noundef byval(%struct.pg_compress_specification) align 8 %1) #0 {
  %3 = alloca ptr, align 8
  store ptr %0, ptr %3, align 8
  %4 = load ptr, ptr %3, align 8
  %5 = getelementptr inbounds nuw %struct.CompressorState, ptr %4, i32 0, i32 0
  store ptr @ReadDataFromArchiveGzip, ptr %5, align 8
  %6 = load ptr, ptr %3, align 8
  %7 = getelementptr inbounds nuw %struct.CompressorState, ptr %6, i32 0, i32 1
  store ptr @WriteDataToArchiveGzip, ptr %7, align 8
  %8 = load ptr, ptr %3, align 8
  %9 = getelementptr inbounds nuw %struct.CompressorState, ptr %8, i32 0, i32 2
  store ptr @EndCompressorGzip, ptr %9, align 8
  %10 = load ptr, ptr %3, align 8
  %11 = getelementptr inbounds nuw %struct.CompressorState, ptr %10, i32 0, i32 5
  call void @llvm.memcpy.p0.p0.i64(ptr align 8 %11, ptr align 8 %1, i64 32, i1 false)
  %12 = load ptr, ptr %3, align 8
  %13 = getelementptr inbounds nuw %struct.CompressorState, ptr %12, i32 0, i32 4
  %14 = load ptr, ptr %13, align 8
  %15 = icmp ne ptr %14, null
  br i1 %15, label %16, label %18

16:                                               ; preds = %2
  %17 = load ptr, ptr %3, align 8
  call void @DeflateCompressorInit(ptr noundef %17)
  br label %18

18:                                               ; preds = %16, %2
  ret void
}