; Function Attrs: nounwind uwtable
define dso_local void @InitCompressorGzip(ptr noundef captures(none) initializes((0, 24), (40, 72)) %0, ptr noundef readonly byval(%struct.pg_compress_specification) align 8 captures(none) %1) local_unnamed_addr #0 {
  store ptr @ReadDataFromArchiveGzip, ptr %0, align 8
  %3 = getelementptr inbounds nuw i8, ptr %0, i64 8
  store ptr @WriteDataToArchiveGzip, ptr %3, align 8
  %4 = getelementptr inbounds nuw i8, ptr %0, i64 16
  store ptr @EndCompressorGzip, ptr %4, align 8
  %5 = getelementptr inbounds nuw i8, ptr %0, i64 40
  call void @llvm.memcpy.p0.p0.i64(ptr noundef nonnull align 8 dereferenceable(32) %5, ptr noundef nonnull align 8 dereferenceable(32) %1, i64 32, i1 false)
  %6 = getelementptr inbounds nuw i8, ptr %0, i64 32
  %7 = load ptr, ptr %6, align 8
  %.not = icmp eq ptr %7, null
  br i1 %.not, label %27, label %8

8:                                                ; preds = %2
  %9 = tail call ptr @pg_malloc0(i64 noundef 24) #11
  %10 = tail call ptr @pg_malloc(i64 noundef 112) #11
  store ptr %10, ptr %9, align 8
  %11 = getelementptr inbounds nuw i8, ptr %10, i64 64
  %12 = getelementptr inbounds nuw i8, ptr %9, i64 16
  tail call void @llvm.memset.p0.i64(ptr noundef nonnull align 8 dereferenceable(24) %11, i8 0, i64 24, i1 false)
  store i64 4096, ptr %12, align 8
  %13 = tail call ptr @pg_malloc(i64 noundef 4097) #11
  %14 = getelementptr inbounds nuw i8, ptr %9, i64 8
  store ptr %13, ptr %14, align 8
  %15 = getelementptr inbounds nuw i8, ptr %0, i64 48
  %16 = load i32, ptr %15, align 8
  %17 = tail call i32 @deflateInit_(ptr noundef %10, i32 noundef %16, ptr noundef nonnull @.str, i32 noundef 112) #11
  %.not.i = icmp eq i32 %17, 0
  br i1 %.not.i, label %DeflateCompressorInit.exit, label %18

18:                                               ; preds = %8
  %19 = getelementptr inbounds nuw i8, ptr %10, i64 48
  %20 = load ptr, ptr %19, align 8
  tail call void (i32, i32, ptr, ...) @pg_log_generic(i32 noundef 4, i32 noundef 0, ptr noundef nonnull @.str.1, ptr noundef %20) #11
  tail call void @exit_nicely(i32 noundef 1) #12
  unreachable

DeflateCompressorInit.exit:                       ; preds = %8
  %21 = load ptr, ptr %14, align 8
  %22 = getelementptr inbounds nuw i8, ptr %10, i64 24
  store ptr %21, ptr %22, align 8
  %23 = load i64, ptr %12, align 8
  %24 = trunc i64 %23 to i32
  %25 = getelementptr inbounds nuw i8, ptr %10, i64 32
  store i32 %24, ptr %25, align 8
  %26 = getelementptr inbounds nuw i8, ptr %0, i64 72
  store ptr %9, ptr %26, align 8
  br label %27

27:                                               ; preds = %DeflateCompressorInit.exit, %2
  ret void
}